; Function Attrs: mustprogress nounwind uwtable
define internal fastcc void @_ZN12_GLOBAL__N_110SemaRecordD2Ev(ptr noundef nonnull align 8 dereferenceable(278) %0) unnamed_addr #0 align 2 {
  %2 = getelementptr inbounds nuw i8, ptr %0, i64 208
  %3 = tail call noundef i64 @_ZNK4llvm15SmallVectorBaseImE4sizeEv(ptr noundef nonnull align 8 dereferenceable(63) %2) #18
  %4 = load ptr, ptr %2, align 8
  %5 = getelementptr inbounds nuw i8, ptr %0, i64 232
  %6 = icmp eq ptr %4, %5
  br i1 %6, label %_ZN4llvm11SmallVectorIN5clang5RISCV19PrototypeDescriptorELj13EED2Ev.exit, label %7

7:                                                ; preds = %1
  tail call void @free(ptr noundef %4) #18
  br label %_ZN4llvm11SmallVectorIN5clang5RISCV19PrototypeDescriptorELj13EED2Ev.exit

_ZN4llvm11SmallVectorIN5clang5RISCV19PrototypeDescriptorELj13EED2Ev.exit: ; preds = %1, %7
  %8 = getelementptr inbounds nuw i8, ptr %0, i64 144
  %9 = tail call noundef i64 @_ZNK4llvm15SmallVectorBaseImE4sizeEv(ptr noundef nonnull align 8 dereferenceable(63) %8) #18
  %10 = load ptr, ptr %8, align 8
  %11 = getelementptr inbounds nuw i8, ptr %0, i64 168
  %12 = icmp eq ptr %10, %11
  br i1 %12, label %_ZN4llvm11SmallVectorIN5clang5RISCV19PrototypeDescriptorELj13EED2Ev.exit1, label %13

13:                                               ; preds = %_ZN4llvm11SmallVectorIN5clang5RISCV19PrototypeDescriptorELj13EED2Ev.exit
  tail call void @free(ptr noundef %10) #18
  br label %_ZN4llvm11SmallVectorIN5clang5RISCV19PrototypeDescriptorELj13EED2Ev.exit1

_ZN4llvm11SmallVectorIN5clang5RISCV19PrototypeDescriptorELj13EED2Ev.exit1: ; preds = %_ZN4llvm11SmallVectorIN5clang5RISCV19PrototypeDescriptorELj13EED2Ev.exit, %13
  %14 = getelementptr inbounds nuw i8, ptr %0, i64 80
  %15 = tail call noundef i64 @_ZNK4llvm15SmallVectorBaseImE4sizeEv(ptr noundef nonnull align 8 dereferenceable(63) %14) #18
  %16 = load ptr, ptr %14, align 8
  %17 = getelementptr inbounds nuw i8, ptr %0, i64 104
  %18 = icmp eq ptr %16, %17
  br i1 %18, label %_ZN4llvm11SmallVectorIN5clang5RISCV19PrototypeDescriptorELj13EED2Ev.exit2, label %19

19:                                               ; preds = %_ZN4llvm11SmallVectorIN5clang5RISCV19PrototypeDescriptorELj13EED2Ev.exit1
  tail call void @free(ptr noundef %16) #18
  br label %_ZN4llvm11SmallVectorIN5clang5RISCV19PrototypeDescriptorELj13EED2Ev.exit2

_ZN4llvm11SmallVectorIN5clang5RISCV19PrototypeDescriptorELj13EED2Ev.exit2: ; preds = %_ZN4llvm11SmallVectorIN5clang5RISCV19PrototypeDescriptorELj13EED2Ev.exit1, %19
  %20 = getelementptr inbounds nuw i8, ptr %0, i64 32
  tail call void @_ZNSt7__cxx1112basic_stringIcSt11char_traitsIcESaIcEED1Ev(ptr noundef nonnull align 8 dereferenceable(32) %20) #18
  tail call void @_ZNSt7__cxx1112basic_stringIcSt11char_traitsIcESaIcEED1Ev(ptr noundef nonnull align 8 dereferenceable(32) %0) #18
  ret void
}